; Function Attrs: mustprogress nounwind uwtable
define dso_local noundef zeroext i1 @_ZNK4llvm8GVNHoist20allOperandsAvailableEPKNS_11InstructionEPKNS_10BasicBlockE(ptr noundef nonnull readonly align 8 captures(none) dereferenceable(581) %0, ptr noundef readonly %1, ptr noundef %2) local_unnamed_addr #0 align 2 {
  %4 = getelementptr inbounds nuw i8, ptr %1, i64 4
  %5 = load i32, ptr %4, align 4
  %6 = and i32 %5, 1073741824
  %.not.i.i.i = icmp eq i32 %6, 0
  br i1 %.not.i.i.i, label %10, label %7

7:                                                ; preds = %3
  %8 = getelementptr inbounds i8, ptr %1, i64 -8
  %9 = load ptr, ptr %8, align 8
  %.pre.i.i = and i32 %5, 134217727
  %.pre1.i.i = zext nneg i32 %.pre.i.i to i64
  br label %_ZNK4llvm4User8operandsEv.exit

10:                                               ; preds = %3
  %11 = and i32 %5, 134217727
  %12 = zext nneg i32 %11 to i64
  %13 = sub nsw i64 0, %12
  %14 = getelementptr inbounds %"class.llvm::Use", ptr %1, i64 %13
  br label %_ZNK4llvm4User8operandsEv.exit

_ZNK4llvm4User8operandsEv.exit:                   ; preds = %7, %10
  %15 = phi ptr [ %9, %7 ], [ %14, %10 ]
  %.pre-phi2.i.i = phi i64 [ %.pre1.i.i, %7 ], [ %12, %10 ]
  %16 = getelementptr inbounds nuw %"class.llvm::Use", ptr %15, i64 %.pre-phi2.i.i
  %.not17 = icmp eq i64 %.pre-phi2.i.i, 0
  br i1 %.not17, label %._crit_edge, label %.lr.ph

.lr.ph:                                           ; preds = %_ZNK4llvm4User8operandsEv.exit
  %17 = getelementptr inbounds nuw i8, ptr %0, i64 184
  br label %18

18:                                               ; preds = %.lr.ph, %27
  %.01318 = phi ptr [ %15, %.lr.ph ], [ %28, %27 ]
  %19 = load ptr, ptr %.01318, align 8
  %20 = load i8, ptr %19, align 8
  %21 = icmp ult i8 %20, 29
  br i1 %21, label %27, label %22

22:                                               ; preds = %18
  %23 = load ptr, ptr %17, align 8
  %24 = getelementptr inbounds nuw i8, ptr %19, i64 40
  %25 = load ptr, ptr %24, align 8
  %26 = tail call noundef zeroext i1 @_ZNK4llvm17DominatorTreeBaseINS_10BasicBlockELb0EE9dominatesEPKS1_S4_(ptr noundef nonnull align 8 dereferenceable(124) %23, ptr noundef %25, ptr noundef %2) #21
  br i1 %26, label %27, label %._crit_edge

27:                                               ; preds = %18, %22
  %28 = getelementptr inbounds nuw i8, ptr %.01318, i64 32
  %.not = icmp eq ptr %28, %16
  br i1 %.not, label %._crit_edge, label %18

._crit_edge:                                      ; preds = %22, %27, %_ZNK4llvm4User8operandsEv.exit
  %.not.lcssa = phi i1 [ true, %_ZNK4llvm4User8operandsEv.exit ], [ true, %27 ], [ false, %22 ]
  ret i1 %.not.lcssa
}